target datalayout = "e-m:e-p270:32:32-p271:32:32-p272:64:64-i64:64-i128:128-f80:128-n8:16:32:64-S128"
target triple = "x86_64-pc-linux-gnu"

%struct.stream_pdu_t = type { ptr, i32, i32 }
%struct.stream_pdu_fragment = type { i32, ptr, i8 }
%struct._fragment_items = type { ptr, ptr, ptr, ptr, ptr, ptr, ptr, ptr, ptr, ptr, ptr, ptr, ptr, ptr }
%struct._fragment_head = type { ptr, ptr, i32, i32, i32, i32, i32, i32, i32, i8, i32, ptr, ptr }

@.str = private unnamed_addr constant [29 x i8] c"%s:%u: failed assertion \22%s\22\00", align 1
@.str.1 = private unnamed_addr constant [14 x i8] c"epan/stream.c\00", align 1
@.str.5 = private unnamed_addr constant [5 x i8] c"frag\00", align 1

; Function Attrs: null_pointer_is_valid sspstrong uwtable
define ptr @stream_process_reassembled(ptr noundef %0, i32 noundef %1, ptr noundef %2, ptr noundef %3, ptr noundef %4, ptr noundef %5, ptr noundef %6, ptr noundef %7) #0 {
  %9 = alloca ptr, align 8
  %10 = alloca ptr, align 8
  %11 = alloca i32, align 4
  %12 = alloca ptr, align 8
  %13 = alloca ptr, align 8
  %14 = alloca ptr, align 8
  %15 = alloca ptr, align 8
  %16 = alloca ptr, align 8
  %17 = alloca ptr, align 8
  %18 = alloca ptr, align 8
  %19 = alloca i32, align 4
  store ptr %0, ptr %10, align 8
  store i32 %1, ptr %11, align 4
  store ptr %2, ptr %12, align 8
  store ptr %3, ptr %13, align 8
  store ptr %4, ptr %14, align 8
  store ptr %5, ptr %15, align 8
  store ptr %6, ptr %16, align 8
  store ptr %7, ptr %17, align 8
  call void @llvm.lifetime.start.p0(i64 8, ptr %18) #6
  %20 = load ptr, ptr %14, align 8
  %21 = icmp ne ptr %20, null
  br i1 %21, label %22, label %23

22:                                               ; preds = %8
  br label %25

23:                                               ; preds = %8
  call void (ptr, ...) @proto_report_dissector_bug(ptr noundef @.str, ptr noundef @.str.1, i32 noundef 382, ptr noundef @.str.5) #7
  unreachable

24:                                               ; No predecessors!
  br label %25

25:                                               ; preds = %24, %22
  %26 = load ptr, ptr %14, align 8
  %27 = getelementptr inbounds nuw %struct.stream_pdu_fragment, ptr %26, i32 0, i32 1
  %28 = load ptr, ptr %27, align 8
  store ptr %28, ptr %18, align 8
  %29 = load ptr, ptr %14, align 8
  %30 = getelementptr inbounds nuw %struct.stream_pdu_fragment, ptr %29, i32 0, i32 2
  %31 = load i8, ptr %30, align 8, !range !6, !noundef !7
  %32 = trunc i8 %31 to i1
  br i1 %32, label %57, label %33

33:                                               ; preds = %25
  %34 = load ptr, ptr %18, align 8
  %35 = getelementptr inbounds nuw %struct.stream_pdu_t, ptr %34, i32 0, i32 0
  %36 = load ptr, ptr %35, align 8
  %37 = icmp ne ptr %36, null
  br i1 %37, label %38, label %56

38:                                               ; preds = %33
  %39 = load ptr, ptr %15, align 8
  %40 = getelementptr inbounds nuw %struct._fragment_items, ptr %39, i32 0, i32 10
  %41 = load ptr, ptr %40, align 8
  %42 = icmp ne ptr %41, null
  br i1 %42, label %43, label %56

43:                                               ; preds = %38
  %44 = load ptr, ptr %17, align 8
  %45 = load ptr, ptr %15, align 8
  %46 = getelementptr inbounds nuw %struct._fragment_items, ptr %45, i32 0, i32 10
  %47 = load ptr, ptr %46, align 8
  %48 = load i32, ptr %47, align 4
  %49 = load ptr, ptr %10, align 8
  %50 = load ptr, ptr %18, align 8
  %51 = getelementptr inbounds nuw %struct.stream_pdu_t, ptr %50, i32 0, i32 0
  %52 = load ptr, ptr %51, align 8
  %53 = getelementptr inbounds nuw %struct._fragment_head, ptr %52, i32 0, i32 8
  %54 = load i32, ptr %53, align 8
  %55 = call ptr @proto_tree_add_uint(ptr noundef %44, i32 noundef %48, ptr noundef %49, i32 noundef 0, i32 noundef 0, i32 noundef %54)
  br label %56

56:                                               ; preds = %43, %38, %33
  store ptr null, ptr %9, align 8
  store i32 1, ptr %19, align 4
  br label %69

57:                                               ; preds = %25
  %58 = load ptr, ptr %10, align 8
  %59 = load i32, ptr %11, align 4
  %60 = load ptr, ptr %12, align 8
  %61 = load ptr, ptr %13, align 8
  %62 = load ptr, ptr %18, align 8
  %63 = getelementptr inbounds nuw %struct.stream_pdu_t, ptr %62, i32 0, i32 0
  %64 = load ptr, ptr %63, align 8
  %65 = load ptr, ptr %15, align 8
  %66 = load ptr, ptr %16, align 8
  %67 = load ptr, ptr %17, align 8
  %68 = call ptr @process_reassembled_data(ptr noundef %58, i32 noundef %59, ptr noundef %60, ptr noundef %61, ptr noundef %64, ptr noundef %65, ptr noundef %66, ptr noundef %67)
  store ptr %68, ptr %9, align 8
  store i32 1, ptr %19, align 4
  br label %69

69:                                               ; preds = %57, %56
  call void @llvm.lifetime.end.p0(i64 8, ptr %18) #6
  %70 = load ptr, ptr %9, align 8
  ret ptr %70
}