; Function Attrs: null_pointer_is_valid sspstrong uwtable
define ptr @stream_process_reassembled(ptr noundef %0, i32 noundef %1, ptr noundef %2, ptr noundef %3, ptr noundef readonly captures(address_is_null) %4, ptr noundef %5, ptr noundef %6, ptr noundef %7) local_unnamed_addr #0 {
  %.not = icmp eq ptr %4, null
  br i1 %.not, label %9, label %10

9:                                                ; preds = %8
  tail call void (ptr, ...) @proto_report_dissector_bug(ptr noundef nonnull @.str, ptr noundef nonnull @.str.1, i32 noundef 382, ptr noundef nonnull @.str.5) #8
  unreachable

10:                                               ; preds = %8
  %11 = getelementptr inbounds nuw i8, ptr %4, i64 8
  %12 = load ptr, ptr %11, align 8
  %13 = getelementptr inbounds nuw i8, ptr %4, i64 16
  %14 = load i8, ptr %13, align 8, !range !6, !noundef !7
  %15 = trunc nuw i8 %14 to i1
  %16 = load ptr, ptr %12, align 8
  br i1 %15, label %26, label %17

17:                                               ; preds = %10
  %.not20 = icmp eq ptr %16, null
  br i1 %.not20, label %28, label %18

18:                                               ; preds = %17
  %19 = getelementptr inbounds nuw i8, ptr %5, i64 80
  %20 = load ptr, ptr %19, align 8
  %.not21 = icmp eq ptr %20, null
  br i1 %.not21, label %28, label %21

21:                                               ; preds = %18
  %22 = load i32, ptr %20, align 4
  %23 = getelementptr inbounds nuw i8, ptr %16, i64 40
  %24 = load i32, ptr %23, align 8
  %25 = tail call ptr @proto_tree_add_uint(ptr noundef %7, i32 noundef %22, ptr noundef %0, i32 noundef 0, i32 noundef 0, i32 noundef %24)
  br label %28

26:                                               ; preds = %10
  %27 = tail call ptr @process_reassembled_data(ptr noundef %0, i32 noundef %1, ptr noundef %2, ptr noundef %3, ptr noundef %16, ptr noundef %5, ptr noundef %6, ptr noundef %7)
  br label %28

28:                                               ; preds = %17, %18, %21, %26
  %.0 = phi ptr [ %27, %26 ], [ null, %21 ], [ null, %18 ], [ null, %17 ]
  ret ptr %.0
}